; ModuleID = '45/573.c'
source_filename = "45/573.c"
target datalayout = "e-m:e-p270:32:32-p271:32:32-p272:64:64-i64:64-f80:128-n8:16:32:64-S128"
target triple = "x86_64-pc-linux-gnu"

@.str = private unnamed_addr constant [6 x i8] c"%s %s\00", align 1
@.str.1 = private unnamed_addr constant [3 x i8] c"%d\00", align 1

; Function Attrs: noinline nounwind uwtable
define dso_local void @main() #0 {
  %1 = alloca i32, align 4
  %2 = alloca i32, align 4
  %3 = alloca i32, align 4
  %4 = alloca i32, align 4
  %5 = alloca i32, align 4
  %6 = alloca i32, align 4
  %7 = alloca [100 x i8], align 16
  %8 = alloca [100 x i8], align 16
  %9 = alloca i8*, align 8
  %10 = alloca i8*, align 8
  %11 = getelementptr inbounds [100 x i8], [100 x i8]* %7, i64 0, i64 0
  %12 = getelementptr inbounds [100 x i8], [100 x i8]* %8, i64 0, i64 0
  %13 = call i32 (i8*, ...) @__isoc99_scanf(i8* getelementptr inbounds ([6 x i8], [6 x i8]* @.str, i64 0, i64 0), i8* %11, i8* %12)
  %14 = getelementptr inbounds [100 x i8], [100 x i8]* %7, i64 0, i64 0
  %15 = call i64 @strlen(i8* %14) #3
  %16 = trunc i64 %15 to i32
  store i32 %16, i32* %5, align 4
  %17 = getelementptr inbounds [100 x i8], [100 x i8]* %8, i64 0, i64 0
  %18 = call i64 @strlen(i8* %17) #3
  %19 = trunc i64 %18 to i32
  store i32 %19, i32* %6, align 4
  %20 = getelementptr inbounds [100 x i8], [100 x i8]* %7, i64 0, i64 0
  store i8* %20, i8** %9, align 8
  %21 = getelementptr inbounds [100 x i8], [100 x i8]* %8, i64 0, i64 0
  store i8* %21, i8** %10, align 8
  br label %22

22:                                               ; preds = %50, %0
  %23 = load i8*, i8** %10, align 8
  %24 = getelementptr inbounds [100 x i8], [100 x i8]* %8, i64 0, i64 0
  %25 = load i32, i32* %6, align 4
  %26 = sext i32 %25 to i64
  %27 = getelementptr inbounds i8, i8* %24, i64 %26
  %28 = icmp ult i8* %23, %27
  br i1 %28, label %29, label %53

29:                                               ; preds = %22
  %30 = load i8*, i8** %9, align 8
  %31 = load i8, i8* %30, align 1
  %32 = sext i8 %31 to i32
  %33 = load i8*, i8** %10, align 8
  %34 = load i8, i8* %33, align 1
  %35 = sext i8 %34 to i32
  %36 = icmp eq i32 %32, %35
  br i1 %36, label %37, label %49

37:                                               ; preds = %29
  %38 = load i8*, i8** %9, align 8
  %39 = getelementptr inbounds [100 x i8], [100 x i8]* %7, i64 0, i64 0
  %40 = load i32, i32* %5, align 4
  %41 = sext i32 %40 to i64
  %42 = getelementptr inbounds i8, i8* %39, i64 %41
  %43 = getelementptr inbounds i8, i8* %42, i64 -1
  %44 = icmp eq i8* %38, %43
  br i1 %44, label %45, label %46

45:                                               ; preds = %37
  br label %53

46:                                               ; preds = %37
  %47 = load i8*, i8** %9, align 8
  %48 = getelementptr inbounds i8, i8* %47, i32 1
  store i8* %48, i8** %9, align 8
  br label %49

49:                                               ; preds = %46, %29
  br label %50

50:                                               ; preds = %49
  %51 = load i8*, i8** %10, align 8
  %52 = getelementptr inbounds i8, i8* %51, i32 1
  store i8* %52, i8** %10, align 8
  br label %22

53:                                               ; preds = %45, %22
  %54 = load i8*, i8** %10, align 8
  %55 = load i32, i32* %5, align 4
  %56 = sext i32 %55 to i64
  %57 = sub i64 0, %56
  %58 = getelementptr inbounds i8, i8* %54, i64 %57
  %59 = getelementptr inbounds i8, i8* %58, i64 1
  %60 = getelementptr inbounds [100 x i8], [100 x i8]* %8, i64 0, i64 0
  %61 = ptrtoint i8* %59 to i64
  %62 = ptrtoint i8* %60 to i64
  %63 = sub i64 %61, %62
  %64 = call i32 (i8*, ...) @printf(i8* getelementptr inbounds ([3 x i8], [3 x i8]* @.str.1, i64 0, i64 0), i64 %63)
  ret void
}

declare dso_local i32 @__isoc99_scanf(i8*, ...) #1

; Function Attrs: nounwind readonly
declare dso_local i64 @strlen(i8*) #2

declare dso_local i32 @printf(i8*, ...) #1


!llvm.module.flags = !{!0}
!llvm.ident = !{!1}

!0 = !{i32 1, !"wchar_size", i32 4}
!1 = !{!"clang version 10.0.0-4ubuntu1 "}
