; ModuleID = 'source-C-CXX/44/573.c'
source_filename = "source-C-CXX/44/573.c"
target datalayout = "e-m:e-p270:32:32-p271:32:32-p272:64:64-i64:64-f80:128-n8:16:32:64-S128"
target triple = "x86_64-pc-linux-gnu"

@.str = private unnamed_addr constant [6 x i8] c"%s %s\00", align 1
@.str.1 = private unnamed_addr constant [3 x i8] c"%d\00", align 1

; Function Attrs: nofree nounwind sspstrong uwtable
define dso_local void @main() local_unnamed_addr #0 {
  %1 = alloca [100 x i8], align 16
  %2 = alloca [100 x i8], align 16
  %3 = getelementptr inbounds [100 x i8], [100 x i8]* %1, i64 0, i64 0
  call void @llvm.lifetime.start.p0i8(i64 100, i8* nonnull %3) #4
  %4 = getelementptr inbounds [100 x i8], [100 x i8]* %2, i64 0, i64 0
  call void @llvm.lifetime.start.p0i8(i64 100, i8* nonnull %4) #4
  %5 = call i32 (i8*, ...) @__isoc99_scanf(i8* getelementptr inbounds ([6 x i8], [6 x i8]* @.str, i64 0, i64 0), i8* nonnull %3, i8* nonnull %4)
  %6 = call i64 @strlen(i8* noundef nonnull %3) #5
  %7 = call i64 @strlen(i8* noundef nonnull %4) #5
  %8 = shl i64 %6, 32
  %9 = ashr exact i64 %8, 32
  %10 = getelementptr inbounds [100 x i8], [100 x i8]* %1, i64 0, i64 %9
  %11 = getelementptr inbounds i8, i8* %10, i64 -1
  %12 = shl i64 %7, 32
  %13 = ashr exact i64 %12, 32
  %14 = getelementptr inbounds [100 x i8], [100 x i8]* %2, i64 0, i64 %13
  %15 = icmp sgt i64 %12, 0
  br i1 %15, label %16, label %30

16:                                               ; preds = %0, %26
  %17 = phi i8* [ %28, %26 ], [ %4, %0 ]
  %18 = phi i8* [ %27, %26 ], [ %3, %0 ]
  %19 = load i8, i8* %18, align 1, !tbaa !5
  %20 = load i8, i8* %17, align 1, !tbaa !5
  %21 = icmp eq i8 %19, %20
  br i1 %21, label %22, label %26

22:                                               ; preds = %16
  %23 = icmp eq i8* %18, %11
  br i1 %23, label %30, label %24

24:                                               ; preds = %22
  %25 = getelementptr inbounds i8, i8* %18, i64 1
  br label %26

26:                                               ; preds = %16, %24
  %27 = phi i8* [ %25, %24 ], [ %18, %16 ]
  %28 = getelementptr inbounds i8, i8* %17, i64 1
  %29 = icmp ult i8* %28, %14
  br i1 %29, label %16, label %30, !llvm.loop !8

30:                                               ; preds = %26, %22, %0
  %31 = phi i8* [ %4, %0 ], [ %17, %22 ], [ %28, %26 ]
  %32 = sub nsw i64 1, %9
  %33 = getelementptr inbounds i8, i8* %31, i64 %32
  %34 = ptrtoint i8* %33 to i64
  %35 = ptrtoint [100 x i8]* %2 to i64
  %36 = sub i64 %34, %35
  %37 = call i32 (i8*, ...) @printf(i8* nonnull dereferenceable(1) getelementptr inbounds ([3 x i8], [3 x i8]* @.str.1, i64 0, i64 0), i64 %36)
  call void @llvm.lifetime.end.p0i8(i64 100, i8* nonnull %4) #4
  call void @llvm.lifetime.end.p0i8(i64 100, i8* nonnull %3) #4
  ret void
}

; Function Attrs: argmemonly mustprogress nofree nosync nounwind willreturn
declare void @llvm.lifetime.start.p0i8(i64 immarg, i8* nocapture) #1

; Function Attrs: nofree nounwind
declare noundef i32 @__isoc99_scanf(i8* nocapture noundef readonly, ...) local_unnamed_addr #2

; Function Attrs: argmemonly mustprogress nofree nounwind readonly willreturn
declare i64 @strlen(i8* nocapture) local_unnamed_addr #3

; Function Attrs: nofree nounwind
declare noundef i32 @printf(i8* nocapture noundef readonly, ...) local_unnamed_addr #2

; Function Attrs: argmemonly mustprogress nofree nosync nounwind willreturn
declare void @llvm.lifetime.end.p0i8(i64 immarg, i8* nocapture) #1


!llvm.module.flags = !{!0, !1, !2, !3}
!llvm.ident = !{!4}

!0 = !{i32 1, !"wchar_size", i32 4}
!1 = !{i32 7, !"PIC Level", i32 2}
!2 = !{i32 7, !"PIE Level", i32 2}
!3 = !{i32 7, !"uwtable", i32 1}
!4 = !{!"clang version 13.0.0"}
!5 = !{!6, !6, i64 0}
!6 = !{!"omnipotent char", !7, i64 0}
!7 = !{!"Simple C/C++ TBAA"}
!8 = distinct !{!8, !9}
!9 = !{!"llvm.loop.mustprogress"}
